target datalayout = "e-m:e-p270:32:32-p271:32:32-p272:64:64-i64:64-i128:128-f80:128-n8:16:32:64-S128"
target triple = "x86_64-pc-linux-gnu"

%struct.Ast_ = type { %union.SourceSpan, i32, i8, %union.anon.58 }
%union.SourceSpan = type { i64 }
%union.anon.58 = type { %struct.AstDocDirective_ }
%struct.AstDocDirective_ = type { i8, %union.anon.61 }
%union.anon.61 = type { %struct.anon.62 }
%struct.anon.62 = type { ptr, %union.SourceSpan, i8 }
%struct.AstForStmt = type { %struct.FlowCommon, %union.anon.67 }
%struct.FlowCommon = type { i32, i8 }
%union.anon.67 = type { %struct.anon.69 }
%struct.anon.69 = type { ptr, ptr }
%struct.anon.68 = type { i32, i32, i32, i32 }

; Function Attrs: nounwind uwtable
define dso_local zeroext i1 @ast_supports_continue(ptr noundef %0) #0 {
  %2 = alloca i1, align 1
  %3 = alloca ptr, align 8
  store ptr %0, ptr %3, align 8
  %4 = load ptr, ptr %3, align 8
  %5 = getelementptr inbounds %struct.Ast_, ptr %4, i32 0, i32 2
  %6 = load i8, ptr %5, align 4
  %7 = zext i8 %6 to i32
  %8 = icmp ne i32 %7, 20
  br i1 %8, label %9, label %10

9:                                                ; preds = %1
  store i1 false, ptr %2, align 1
  br label %28

10:                                               ; preds = %1
  %11 = load ptr, ptr %3, align 8
  %12 = getelementptr inbounds %struct.Ast_, ptr %11, i32 0, i32 3
  %13 = getelementptr inbounds %struct.AstForStmt, ptr %12, i32 0, i32 1
  %14 = getelementptr inbounds %struct.anon.68, ptr %13, i32 0, i32 0
  %15 = load i32, ptr %14, align 8
  %16 = icmp ne i32 %15, 0
  br i1 %16, label %26, label %17

17:                                               ; preds = %10
  %18 = load ptr, ptr %3, align 8
  %19 = getelementptr inbounds %struct.Ast_, ptr %18, i32 0, i32 3
  %20 = getelementptr inbounds %struct.FlowCommon, ptr %19, i32 0, i32 1
  %21 = load i8, ptr %20, align 4
  %22 = lshr i8 %21, 2
  %23 = and i8 %22, 1
  %24 = trunc i8 %23 to i1
  %25 = xor i1 %24, true
  br label %26

26:                                               ; preds = %17, %10
  %27 = phi i1 [ true, %10 ], [ %25, %17 ]
  store i1 %27, ptr %2, align 1
  br label %28

28:                                               ; preds = %26, %9
  %29 = load i1, ptr %2, align 1
  ret i1 %29
}