; Function Attrs: mustprogress nofree norecurse nosync nounwind willreturn memory(argmem: read) uwtable
define dso_local zeroext i1 @ast_supports_continue(ptr nocapture noundef readonly %0) local_unnamed_addr #1 {
  %2 = getelementptr inbounds i8, ptr %0, i64 12
  %3 = load i8, ptr %2, align 4
  %.not = icmp eq i8 %3, 20
  br i1 %.not, label %4, label %11

4:                                                ; preds = %1
  %5 = getelementptr inbounds i8, ptr %0, i64 24
  %6 = load i32, ptr %5, align 8
  %.not4 = icmp eq i32 %6, 0
  br i1 %.not4, label %7, label %11

7:                                                ; preds = %4
  %8 = getelementptr inbounds i8, ptr %0, i64 20
  %9 = load i8, ptr %8, align 4
  %10 = and i8 %9, 4
  %.not5 = icmp eq i8 %10, 0
  br label %11

11:                                               ; preds = %4, %7, %1
  %.0 = phi i1 [ false, %1 ], [ true, %4 ], [ %.not5, %7 ]
  ret i1 %.0
}